target datalayout = "e-m:e-p270:32:32-p271:32:32-p272:64:64-i64:64-i128:128-f80:128-n8:16:32:64-S128"
target triple = "x86_64-pc-linux-gnu"

%"class.llvm::TargetRegisterClass" = type { ptr, ptr, ptr, %"struct.llvm::LaneBitmask", i8, i8, i8, i8, i8, ptr, ptr }
%"struct.llvm::LaneBitmask" = type { i64 }
%"class.llvm::MCRegisterInfo" = type { ptr, i32, %"class.llvm::MCRegister", %"class.llvm::MCRegister", ptr, i32, i32, ptr, ptr, ptr, ptr, ptr, ptr, i32, ptr, i32, i32, i32, i32, ptr, ptr, ptr, ptr, %"class.llvm::DenseMap", %"class.llvm::DenseMap", %"class.std::vector" }
%"class.llvm::MCRegister" = type { i32 }
%"class.llvm::DenseMap" = type <{ ptr, i32, i32, i32, [4 x i8] }>
%"class.std::vector" = type { %"struct.std::_Vector_base" }
%"struct.std::_Vector_base" = type { %"struct.std::_Vector_base<std::vector<unsigned short>, std::allocator<std::vector<unsigned short>>>::_Vector_impl" }
%"struct.std::_Vector_base<std::vector<unsigned short>, std::allocator<std::vector<unsigned short>>>::_Vector_impl" = type { %"struct.std::_Vector_base<std::vector<unsigned short>, std::allocator<std::vector<unsigned short>>>::_Vector_impl_data" }
%"struct.std::_Vector_base<std::vector<unsigned short>, std::allocator<std::vector<unsigned short>>>::_Vector_impl_data" = type { ptr, ptr, ptr }
%"class.llvm::Register" = type { i32 }
%"class.llvm::MachineInstr" = type <{ %"class.llvm::ilist_node_with_parent", ptr, ptr, ptr, [3 x i8], %"class.llvm::ArrayRecycler<llvm::MachineOperand>::Capacity", i32, %"class.llvm::PointerSumType", %"class.llvm::DebugLoc", i32, i16, [2 x i8] }>
%"class.llvm::ilist_node_with_parent" = type { %"class.llvm::ilist_node" }
%"class.llvm::ilist_node" = type { %"class.llvm::ilist_node_impl.148" }
%"class.llvm::ilist_node_impl.148" = type { %"class.llvm::ilist_node_base.149" }
%"class.llvm::ilist_node_base.149" = type { %"class.llvm::ilist_detail::node_base_prevnext.150" }
%"class.llvm::ilist_detail::node_base_prevnext.150" = type { %"class.llvm::PointerIntPair", ptr }
%"class.llvm::PointerIntPair" = type { %"struct.llvm::detail::PunnedPointer" }
%"struct.llvm::detail::PunnedPointer" = type { [8 x i8] }
%"class.llvm::ArrayRecycler<llvm::MachineOperand>::Capacity" = type { i8 }
%"class.llvm::PointerSumType" = type { %"union.llvm::PointerSumType<llvm::MachineInstr::ExtraInfoInlineKinds, llvm::PointerSumTypeMember<0, llvm::MachineMemOperand *>, llvm::PointerSumTypeMember<1, llvm::MCSymbol *>, llvm::PointerSumTypeMember<2, llvm::MCSymbol *>, llvm::PointerSumTypeMember<3, llvm::MachineInstr::ExtraInfo *>>::StorageT" }
%"union.llvm::PointerSumType<llvm::MachineInstr::ExtraInfoInlineKinds, llvm::PointerSumTypeMember<0, llvm::MachineMemOperand *>, llvm::PointerSumTypeMember<1, llvm::MCSymbol *>, llvm::PointerSumTypeMember<2, llvm::MCSymbol *>, llvm::PointerSumTypeMember<3, llvm::MachineInstr::ExtraInfo *>>::StorageT" = type { i64 }
%"class.llvm::DebugLoc" = type { %"class.llvm::TypedTrackingMDRef" }
%"class.llvm::TypedTrackingMDRef" = type { %"class.llvm::TrackingMDRef" }
%"class.llvm::TrackingMDRef" = type { ptr }
%"class.llvm::MachineOperand" = type { i32, %union.anon.152, ptr, %"union.llvm::MachineOperand::ContentsUnion" }
%union.anon.152 = type { i32 }
%"union.llvm::MachineOperand::ContentsUnion" = type { %"class.llvm::ArrayRef.153" }
%"class.llvm::ArrayRef.153" = type { ptr, i64 }
%"class.llvm::MachineInstrBuilder" = type { ptr, ptr }

@_ZN4llvm3X8613VR512RegClassE = external global %"class.llvm::TargetRegisterClass", align 8

; Function Attrs: mustprogress nounwind uwtable
define linkonce_odr hidden void @_ZN4llvm14MachineOperand13ContentsUnionC2Ev(ptr noundef nonnull align 8 dereferenceable(16) %0) unnamed_addr #0 comdat align 2 {
  %2 = alloca ptr, align 8
  store ptr %0, ptr %2, align 8
  ret void
}

; Function Attrs: mustprogress nounwind uwtable
define linkonce_odr hidden void @_ZN4llvm14MachineOperand6setImmEl(ptr noundef nonnull align 8 dereferenceable(32) %0, i64 noundef %1) #0 comdat align 2 {
  %3 = alloca ptr, align 8
  %4 = alloca i64, align 8
  store ptr %0, ptr %3, align 8
  store i64 %1, ptr %4, align 8
  %5 = load ptr, ptr %3, align 8
  %6 = load i64, ptr %4, align 8
  %7 = getelementptr inbounds nuw %"class.llvm::MachineOperand", ptr %5, i32 0, i32 3
  store i64 %6, ptr %7, align 8
  ret void
}

; Function Attrs: mustprogress nounwind uwtable
define linkonce_odr hidden void @_ZN4llvm14MachineOperandC2ENS0_18MachineOperandTypeE(ptr noundef nonnull align 8 dereferenceable(32) %0, i8 noundef zeroext %1) unnamed_addr #0 comdat align 2 {
  %3 = alloca ptr, align 8
  %4 = alloca i8, align 1
  store ptr %0, ptr %3, align 8
  store i8 %1, ptr %4, align 1
  %5 = load ptr, ptr %3, align 8
  %6 = load i8, ptr %4, align 1
  %7 = zext i8 %6 to i32
  %8 = load i32, ptr %5, align 8
  %9 = and i32 %7, 255
  %10 = and i32 %8, -256
  %11 = or i32 %10, %9
  store i32 %11, ptr %5, align 8
  %12 = load i32, ptr %5, align 8
  %13 = and i32 %12, -1048321
  %14 = or i32 %13, 0
  store i32 %14, ptr %5, align 8
  %15 = getelementptr inbounds nuw %"class.llvm::MachineOperand", ptr %5, i32 0, i32 2
  store ptr null, ptr %15, align 8
  %16 = getelementptr inbounds nuw %"class.llvm::MachineOperand", ptr %5, i32 0, i32 3
  call void @_ZN4llvm14MachineOperand13ContentsUnionC2Ev(ptr noundef nonnull align 8 dereferenceable(16) %16)
  ret void
}

; Function Attrs: mustprogress nounwind uwtable
define linkonce_odr hidden void @_ZN4llvm8RegisterC2Ej(ptr noundef nonnull align 4 dereferenceable(4) %0, i32 noundef %1) unnamed_addr #0 comdat align 2 {
  %3 = alloca ptr, align 8
  %4 = alloca i32, align 4
  store ptr %0, ptr %3, align 8
  store i32 %1, ptr %4, align 4
  %5 = load ptr, ptr %3, align 8
  %6 = getelementptr inbounds nuw %"class.llvm::Register", ptr %5, i32 0, i32 0
  %7 = load i32, ptr %4, align 4
  store i32 %7, ptr %6, align 4
  ret void
}

; Function Attrs: mustprogress nounwind uwtable
define linkonce_odr hidden void @_ZN4llvm14MachineOperand9CreateImmEl(ptr dead_on_unwind noalias writable sret(%"class.llvm::MachineOperand") align 8 %0, i64 noundef %1) #0 comdat align 2 {
  %3 = alloca i64, align 8
  store i64 %1, ptr %3, align 8
  call void @_ZN4llvm14MachineOperandC2ENS0_18MachineOperandTypeE(ptr noundef nonnull align 8 dereferenceable(32) %0, i8 noundef zeroext 1)
  %4 = load i64, ptr %3, align 8
  call void @_ZN4llvm14MachineOperand6setImmEl(ptr noundef nonnull align 8 dereferenceable(32) %0, i64 noundef %4)
  ret void
}

; Function Attrs: mustprogress nounwind uwtable
define linkonce_odr hidden noundef i32 @_ZNK4llvm10MCRegistercvjEv(ptr noundef nonnull align 4 dereferenceable(4) %0) #0 comdat align 2 {
  %2 = alloca ptr, align 8
  store ptr %0, ptr %2, align 8
  %3 = load ptr, ptr %2, align 8
  %4 = getelementptr inbounds nuw %"class.llvm::MCRegister", ptr %3, i32 0, i32 0
  %5 = load i32, ptr %4, align 4
  ret i32 %5
}

; Function Attrs: mustprogress nounwind uwtable
define linkonce_odr hidden void @_ZN4llvm10MCRegisterC2Ej(ptr noundef nonnull align 4 dereferenceable(4) %0, i32 noundef %1) unnamed_addr #0 comdat align 2 {
  %3 = alloca ptr, align 8
  %4 = alloca i32, align 4
  store ptr %0, ptr %3, align 8
  store i32 %1, ptr %4, align 4
  %5 = load ptr, ptr %3, align 8
  %6 = getelementptr inbounds nuw %"class.llvm::MCRegister", ptr %5, i32 0, i32 0
  %7 = load i32, ptr %4, align 4
  store i32 %7, ptr %6, align 4
  ret void
}

; Function Attrs: mustprogress nounwind uwtable
define linkonce_odr hidden i32 @_ZNK4llvm14MachineOperand6getRegEv(ptr noundef nonnull align 8 dereferenceable(32) %0) #0 comdat align 2 {
  %2 = alloca %"class.llvm::Register", align 4
  %3 = alloca ptr, align 8
  store ptr %0, ptr %3, align 8
  %4 = load ptr, ptr %3, align 8
  %5 = getelementptr inbounds nuw %"class.llvm::MachineOperand", ptr %4, i32 0, i32 1
  %6 = load i32, ptr %5, align 4
  call void @_ZN4llvm8RegisterC2Ej(ptr noundef nonnull align 4 dereferenceable(4) %2, i32 noundef %6)
  %7 = getelementptr inbounds nuw %"class.llvm::Register", ptr %2, i32 0, i32 0
  %8 = load i32, ptr %7, align 4
  ret i32 %8
}

; Function Attrs: mustprogress nounwind uwtable
define linkonce_odr hidden noundef nonnull align 8 dereferenceable(16) ptr @_ZNK4llvm19MachineInstrBuilder6addImmEl(ptr noundef nonnull align 8 dereferenceable(16) %0, i64 noundef %1) #0 comdat align 2 {
  %3 = alloca ptr, align 8
  %4 = alloca i64, align 8
  %5 = alloca %"class.llvm::MachineOperand", align 8
  store ptr %0, ptr %3, align 8
  store i64 %1, ptr %4, align 8
  %6 = load ptr, ptr %3, align 8
  %7 = getelementptr inbounds nuw %"class.llvm::MachineInstrBuilder", ptr %6, i32 0, i32 1
  %8 = load ptr, ptr %7, align 8
  %9 = getelementptr inbounds nuw %"class.llvm::MachineInstrBuilder", ptr %6, i32 0, i32 0
  %10 = load ptr, ptr %9, align 8
  %11 = load i64, ptr %4, align 8
  call void @_ZN4llvm14MachineOperand9CreateImmEl(ptr dead_on_unwind writable sret(%"class.llvm::MachineOperand") align 8 %5, i64 noundef %11)
  call void @_ZN4llvm12MachineInstr10addOperandERNS_15MachineFunctionERKNS_14MachineOperandE(ptr noundef nonnull align 8 dereferenceable(70) %8, ptr noundef nonnull align 8 dereferenceable(1041) %10, ptr noundef nonnull align 8 dereferenceable(32) %5)
  ret ptr %6
}

; Function Attrs: mustprogress nounwind uwtable
define linkonce_odr hidden noundef nonnull align 8 dereferenceable(32) ptr @_ZN4llvm12MachineInstr10getOperandEj(ptr noundef nonnull align 8 dereferenceable(70) %0, i32 noundef %1) #0 comdat align 2 {
  %3 = alloca ptr, align 8
  %4 = alloca i32, align 4
  store ptr %0, ptr %3, align 8
  store i32 %1, ptr %4, align 4
  %5 = load ptr, ptr %3, align 8
  %6 = getelementptr inbounds nuw %"class.llvm::MachineInstr", ptr %5, i32 0, i32 3
  %7 = load ptr, ptr %6, align 8
  %8 = load i32, ptr %4, align 4
  %9 = zext i32 %8 to i64
  %10 = getelementptr inbounds %"class.llvm::MachineOperand", ptr %7, i64 %9
  ret ptr %10
}

; Function Attrs: mustprogress nounwind uwtable
define linkonce_odr hidden void @_ZN4llvm8RegisterC2ENS_10MCRegisterE(ptr noundef nonnull align 4 dereferenceable(4) %0, i32 %1) unnamed_addr #0 comdat align 2 {
  %3 = alloca %"class.llvm::MCRegister", align 4
  %4 = alloca ptr, align 8
  %5 = getelementptr inbounds nuw %"class.llvm::MCRegister", ptr %3, i32 0, i32 0
  store i32 %1, ptr %5, align 4
  store ptr %0, ptr %4, align 8
  %6 = load ptr, ptr %4, align 8
  %7 = getelementptr inbounds nuw %"class.llvm::Register", ptr %6, i32 0, i32 0
  %8 = call noundef i32 @_ZNK4llvm10MCRegistercvjEv(ptr noundef nonnull align 4 dereferenceable(4) %3)
  store i32 %8, ptr %7, align 4
  ret void
}

; Function Attrs: mustprogress nounwind uwtable
define linkonce_odr hidden i32 @_ZNK4llvm18TargetRegisterInfo19getMatchingSuperRegENS_10MCRegisterEjPKNS_19TargetRegisterClassE(ptr noundef nonnull align 8 dereferenceable(308) %0, i32 %1, i32 noundef %2, ptr noundef %3) #0 comdat align 2 {
  %5 = alloca %"class.llvm::MCRegister", align 4
  %6 = alloca %"class.llvm::MCRegister", align 4
  %7 = alloca ptr, align 8
  %8 = alloca i32, align 4
  %9 = alloca ptr, align 8
  %10 = alloca %"class.llvm::MCRegister", align 4
  %11 = getelementptr inbounds nuw %"class.llvm::MCRegister", ptr %6, i32 0, i32 0
  store i32 %1, ptr %11, align 4
  store ptr %0, ptr %7, align 8
  store i32 %2, ptr %8, align 4
  store ptr %3, ptr %9, align 8
  %12 = load ptr, ptr %7, align 8
  %13 = getelementptr inbounds i8, ptr %12, i64 8
  call void @llvm.memcpy.p0.p0.i64(ptr align 4 %10, ptr align 4 %6, i64 4, i1 false)
  %14 = load i32, ptr %8, align 4
  %15 = load ptr, ptr %9, align 8
  %16 = getelementptr inbounds nuw %"class.llvm::TargetRegisterClass", ptr %15, i32 0, i32 0
  %17 = load ptr, ptr %16, align 8
  %18 = getelementptr inbounds nuw %"class.llvm::MCRegister", ptr %10, i32 0, i32 0
  %19 = load i32, ptr %18, align 4
  %20 = call i32 @_ZNK4llvm14MCRegisterInfo19getMatchingSuperRegENS_10MCRegisterEjPKNS_15MCRegisterClassE(ptr noundef nonnull align 8 dereferenceable(224) %13, i32 %19, i32 noundef %14, ptr noundef %17)
  %21 = getelementptr inbounds nuw %"class.llvm::MCRegister", ptr %5, i32 0, i32 0
  store i32 %20, ptr %21, align 4
  %22 = getelementptr inbounds nuw %"class.llvm::MCRegister", ptr %5, i32 0, i32 0
  %23 = load i32, ptr %22, align 4
  ret i32 %23
}

; Function Attrs: mustprogress nounwind uwtable
define linkonce_odr hidden noundef ptr @_ZNK4llvm19MachineInstrBuilderptEv(ptr noundef nonnull align 8 dereferenceable(16) %0) #0 comdat align 2 {
  %2 = alloca ptr, align 8
  store ptr %0, ptr %2, align 8
  %3 = load ptr, ptr %2, align 8
  %4 = getelementptr inbounds nuw %"class.llvm::MachineInstrBuilder", ptr %3, i32 0, i32 1
  %5 = load ptr, ptr %4, align 8
  ret ptr %5
}

; Function Attrs: mustprogress nounwind uwtable
define linkonce_odr hidden noundef zeroext i16 @_ZNK4llvm14MCRegisterInfo16getEncodingValueENS_10MCRegisterE(ptr noundef nonnull align 8 dereferenceable(224) %0, i32 %1) #0 comdat align 2 {
  %3 = alloca %"class.llvm::MCRegister", align 4
  %4 = alloca ptr, align 8
  %5 = getelementptr inbounds nuw %"class.llvm::MCRegister", ptr %3, i32 0, i32 0
  store i32 %1, ptr %5, align 4
  store ptr %0, ptr %4, align 8
  %6 = load ptr, ptr %4, align 8
  %7 = getelementptr inbounds nuw %"class.llvm::MCRegisterInfo", ptr %6, i32 0, i32 14
  %8 = load ptr, ptr %7, align 8
  %9 = call noundef i32 @_ZNK4llvm10MCRegistercvjEv(ptr noundef nonnull align 4 dereferenceable(4) %3)
  %10 = zext i32 %9 to i64
  %11 = getelementptr inbounds i16, ptr %8, i64 %10
  %12 = load i16, ptr %11, align 2
  ret i16 %12
}

; Function Attrs: mustprogress nounwind uwtable
define linkonce_odr hidden i32 @_ZNK4llvm8RegistercvNS_10MCRegisterEEv(ptr noundef nonnull align 4 dereferenceable(4) %0) #0 comdat align 2 {
  %2 = alloca %"class.llvm::MCRegister", align 4
  %3 = alloca ptr, align 8
  store ptr %0, ptr %3, align 8
  %4 = load ptr, ptr %3, align 8
  %5 = getelementptr inbounds nuw %"class.llvm::Register", ptr %4, i32 0, i32 0
  %6 = load i32, ptr %5, align 4
  call void @_ZN4llvm10MCRegisterC2Ej(ptr noundef nonnull align 4 dereferenceable(4) %2, i32 noundef %6)
  %7 = getelementptr inbounds nuw %"class.llvm::MCRegister", ptr %2, i32 0, i32 0
  %8 = load i32, ptr %7, align 4
  ret i32 %8
}

; Function Attrs: mustprogress nounwind uwtable
define linkonce_odr hidden i32 @_ZNK4llvm19MachineInstrBuilder6getRegEj(ptr noundef nonnull align 8 dereferenceable(16) %0, i32 noundef %1) #0 comdat align 2 {
  %3 = alloca %"class.llvm::Register", align 4
  %4 = alloca ptr, align 8
  %5 = alloca i32, align 4
  store ptr %0, ptr %4, align 8
  store i32 %1, ptr %5, align 4
  %6 = load ptr, ptr %4, align 8
  %7 = getelementptr inbounds nuw %"class.llvm::MachineInstrBuilder", ptr %6, i32 0, i32 1
  %8 = load ptr, ptr %7, align 8
  %9 = load i32, ptr %5, align 4
  %10 = call noundef nonnull align 8 dereferenceable(32) ptr @_ZN4llvm12MachineInstr10getOperandEj(ptr noundef nonnull align 8 dereferenceable(70) %8, i32 noundef %9)
  %11 = call i32 @_ZNK4llvm14MachineOperand6getRegEv(ptr noundef nonnull align 8 dereferenceable(32) %10)
  %12 = getelementptr inbounds nuw %"class.llvm::Register", ptr %3, i32 0, i32 0
  store i32 %11, ptr %12, align 4
  %13 = getelementptr inbounds nuw %"class.llvm::Register", ptr %3, i32 0, i32 0
  %14 = load i32, ptr %13, align 4
  ret i32 %14
}

; Function Attrs: mustprogress nounwind uwtable
define internal noundef zeroext i1 @_ZL16expandNOVLXStoreRN4llvm19MachineInstrBuilderEPKNS_18TargetRegisterInfoERKNS_11MCInstrDescES7_j(ptr noundef nonnull align 8 dereferenceable(16) %0, ptr noundef %1, ptr noundef nonnull align 8 dereferenceable(32) %2, ptr noundef nonnull align 8 dereferenceable(32) %3, i32 noundef %4) #0 {
  %6 = alloca ptr, align 8
  %7 = alloca ptr, align 8
  %8 = alloca ptr, align 8
  %9 = alloca ptr, align 8
  %10 = alloca i32, align 4
  %11 = alloca %"class.llvm::Register", align 4
  %12 = alloca %"class.llvm::MCRegister", align 4
  %13 = alloca %"class.llvm::Register", align 4
  %14 = alloca %"class.llvm::MCRegister", align 4
  %15 = alloca %"class.llvm::MCRegister", align 4
  %16 = alloca %"class.llvm::Register", align 4
  store ptr %0, ptr %6, align 8
  store ptr %1, ptr %7, align 8
  store ptr %2, ptr %8, align 8
  store ptr %3, ptr %9, align 8
  store i32 %4, ptr %10, align 4
  %17 = load ptr, ptr %6, align 8
  %18 = call i32 @_ZNK4llvm19MachineInstrBuilder6getRegEj(ptr noundef nonnull align 8 dereferenceable(16) %17, i32 noundef 5)
  %19 = getelementptr inbounds nuw %"class.llvm::Register", ptr %11, i32 0, i32 0
  store i32 %18, ptr %19, align 4
  %20 = load ptr, ptr %7, align 8
  %21 = getelementptr inbounds i8, ptr %20, i64 8
  %22 = call i32 @_ZNK4llvm8RegistercvNS_10MCRegisterEEv(ptr noundef nonnull align 4 dereferenceable(4) %11)
  %23 = getelementptr inbounds nuw %"class.llvm::MCRegister", ptr %12, i32 0, i32 0
  store i32 %22, ptr %23, align 4
  %24 = getelementptr inbounds nuw %"class.llvm::MCRegister", ptr %12, i32 0, i32 0
  %25 = load i32, ptr %24, align 4
  %26 = call noundef zeroext i16 @_ZNK4llvm14MCRegisterInfo16getEncodingValueENS_10MCRegisterE(ptr noundef nonnull align 8 dereferenceable(224) %21, i32 %25)
  %27 = zext i16 %26 to i32
  %28 = icmp slt i32 %27, 16
  br i1 %28, label %29, label %33

29:                                               ; preds = %5
  %30 = load ptr, ptr %6, align 8
  %31 = call noundef ptr @_ZNK4llvm19MachineInstrBuilderptEv(ptr noundef nonnull align 8 dereferenceable(16) %30)
  %32 = load ptr, ptr %8, align 8
  call void @_ZN4llvm12MachineInstr7setDescERKNS_11MCInstrDescE(ptr noundef nonnull align 8 dereferenceable(70) %31, ptr noundef nonnull align 8 dereferenceable(32) %32)
  br label %54

33:                                               ; preds = %5
  %34 = load ptr, ptr %6, align 8
  %35 = call noundef ptr @_ZNK4llvm19MachineInstrBuilderptEv(ptr noundef nonnull align 8 dereferenceable(16) %34)
  %36 = load ptr, ptr %9, align 8
  call void @_ZN4llvm12MachineInstr7setDescERKNS_11MCInstrDescE(ptr noundef nonnull align 8 dereferenceable(70) %35, ptr noundef nonnull align 8 dereferenceable(32) %36)
  %37 = load ptr, ptr %7, align 8
  %38 = call i32 @_ZNK4llvm8RegistercvNS_10MCRegisterEEv(ptr noundef nonnull align 4 dereferenceable(4) %11)
  %39 = getelementptr inbounds nuw %"class.llvm::MCRegister", ptr %15, i32 0, i32 0
  store i32 %38, ptr %39, align 4
  %40 = load i32, ptr %10, align 4
  %41 = getelementptr inbounds nuw %"class.llvm::MCRegister", ptr %15, i32 0, i32 0
  %42 = load i32, ptr %41, align 4
  %43 = call i32 @_ZNK4llvm18TargetRegisterInfo19getMatchingSuperRegENS_10MCRegisterEjPKNS_19TargetRegisterClassE(ptr noundef nonnull align 8 dereferenceable(308) %37, i32 %42, i32 noundef %40, ptr noundef @_ZN4llvm3X8613VR512RegClassE)
  %44 = getelementptr inbounds nuw %"class.llvm::MCRegister", ptr %14, i32 0, i32 0
  store i32 %43, ptr %44, align 4
  %45 = getelementptr inbounds nuw %"class.llvm::MCRegister", ptr %14, i32 0, i32 0
  %46 = load i32, ptr %45, align 4
  call void @_ZN4llvm8RegisterC2ENS_10MCRegisterE(ptr noundef nonnull align 4 dereferenceable(4) %13, i32 %46)
  call void @llvm.memcpy.p0.p0.i64(ptr align 4 %11, ptr align 4 %13, i64 4, i1 false)
  %47 = load ptr, ptr %6, align 8
  %48 = call noundef ptr @_ZNK4llvm19MachineInstrBuilderptEv(ptr noundef nonnull align 8 dereferenceable(16) %47)
  %49 = call noundef nonnull align 8 dereferenceable(32) ptr @_ZN4llvm12MachineInstr10getOperandEj(ptr noundef nonnull align 8 dereferenceable(70) %48, i32 noundef 5)
  call void @llvm.memcpy.p0.p0.i64(ptr align 4 %16, ptr align 4 %11, i64 4, i1 false)
  %50 = getelementptr inbounds nuw %"class.llvm::Register", ptr %16, i32 0, i32 0
  %51 = load i32, ptr %50, align 4
  call void @_ZN4llvm14MachineOperand6setRegENS_8RegisterE(ptr noundef nonnull align 8 dereferenceable(32) %49, i32 %51)
  %52 = load ptr, ptr %6, align 8
  %53 = call noundef nonnull align 8 dereferenceable(16) ptr @_ZNK4llvm19MachineInstrBuilder6addImmEl(ptr noundef nonnull align 8 dereferenceable(16) %52, i64 noundef 0)
  br label %54

54:                                               ; preds = %33, %29
  ret i1 true
}