; Function Attrs: mustprogress nounwind uwtable
define internal fastcc void @_ZL16expandNOVLXStoreRN4llvm19MachineInstrBuilderEPKNS_18TargetRegisterInfoERKNS_11MCInstrDescES7_j(ptr noundef nonnull readonly align 8 captures(none) dereferenceable(16) %0, ptr noundef nonnull %1, ptr noundef nonnull align 8 dereferenceable(32) %2, ptr noundef nonnull align 8 dereferenceable(32) %3, i32 noundef range(i32 9, 11) %4) unnamed_addr #1 {
  %6 = alloca %"class.llvm::MachineOperand", align 8
  %7 = getelementptr inbounds nuw i8, ptr %0, i64 8
  %8 = load ptr, ptr %7, align 8
  %9 = getelementptr inbounds nuw i8, ptr %8, i64 32
  %10 = load ptr, ptr %9, align 8
  %11 = getelementptr inbounds nuw i8, ptr %10, i64 164
  %12 = load i32, ptr %11, align 4
  %13 = getelementptr inbounds nuw i8, ptr %1, i64 104
  %14 = load ptr, ptr %13, align 8
  %15 = zext i32 %12 to i64
  %16 = getelementptr inbounds nuw i16, ptr %14, i64 %15
  %17 = load i16, ptr %16, align 2
  %18 = icmp ult i16 %17, 16
  br i1 %18, label %19, label %20

19:                                               ; preds = %5
  tail call void @_ZN4llvm12MachineInstr7setDescERKNS_11MCInstrDescE(ptr noundef nonnull align 8 dereferenceable(70) %8, ptr noundef nonnull align 8 dereferenceable(32) %2) #29
  br label %31

20:                                               ; preds = %5
  %21 = getelementptr inbounds nuw i8, ptr %1, i64 8
  tail call void @_ZN4llvm12MachineInstr7setDescERKNS_11MCInstrDescE(ptr noundef nonnull align 8 dereferenceable(70) %8, ptr noundef nonnull align 8 dereferenceable(32) %3) #29
  %22 = load ptr, ptr @_ZN4llvm3X8613VR512RegClassE, align 8
  %23 = tail call i32 @_ZNK4llvm14MCRegisterInfo19getMatchingSuperRegENS_10MCRegisterEjPKNS_15MCRegisterClassE(ptr noundef nonnull align 8 dereferenceable(224) %21, i32 %12, i32 noundef %4, ptr noundef %22) #29
  %24 = load ptr, ptr %7, align 8
  %25 = getelementptr inbounds nuw i8, ptr %24, i64 32
  %26 = load ptr, ptr %25, align 8
  %27 = getelementptr inbounds nuw i8, ptr %26, i64 160
  tail call void @_ZN4llvm14MachineOperand6setRegENS_8RegisterE(ptr noundef nonnull align 8 dereferenceable(32) %27, i32 %23) #29
  call void @llvm.lifetime.start.p0(i64 32, ptr nonnull %6)
  %28 = load ptr, ptr %7, align 8
  %29 = load ptr, ptr %0, align 8
  store i32 1, ptr %6, align 8, !alias.scope !434
  %30 = getelementptr inbounds nuw i8, ptr %6, i64 8
  call void @llvm.memset.p0.i64(ptr noundef nonnull align 8 dereferenceable(16) %30, i8 0, i64 16, i1 false)
  call void @_ZN4llvm12MachineInstr10addOperandERNS_15MachineFunctionERKNS_14MachineOperandE(ptr noundef nonnull align 8 dereferenceable(70) %28, ptr noundef nonnull align 8 dereferenceable(1041) %29, ptr noundef nonnull align 8 dereferenceable(32) %6) #29
  call void @llvm.lifetime.end.p0(i64 32, ptr nonnull %6)
  br label %31

31:                                               ; preds = %20, %19
  ret void
}